target datalayout = "e-m:e-p270:32:32-p271:32:32-p272:64:64-i64:64-i128:128-f80:128-n8:16:32:64-S128"
target triple = "x86_64-pc-linux-gnu"

@.str.2 = private unnamed_addr constant [2 x i8] c",\00", align 1

; Function Attrs: nounwind uwtable
define dso_local ptr @slurm_array_str2bitmap(ptr noundef %0, i32 noundef %1, ptr noundef %2) #0 {
  %4 = alloca ptr, align 8
  %5 = alloca ptr, align 8
  %6 = alloca i32, align 4
  %7 = alloca ptr, align 8
  %8 = alloca ptr, align 8
  %9 = alloca ptr, align 8
  %10 = alloca ptr, align 8
  %11 = alloca i8, align 1
  %12 = alloca i32, align 4
  %13 = alloca i32, align 4
  store ptr %0, ptr %5, align 8
  store i32 %1, ptr %6, align 4
  store ptr %2, ptr %7, align 8
  call void @llvm.lifetime.start.p0(i64 8, ptr %8) #11
  call void @llvm.lifetime.start.p0(i64 8, ptr %9) #11
  call void @llvm.lifetime.start.p0(i64 8, ptr %10) #11
  call void @llvm.lifetime.start.p0(i64 1, ptr %11) #11
  store i8 1, ptr %11, align 1
  call void @llvm.lifetime.start.p0(i64 4, ptr %12) #11
  store i32 -1, ptr %12, align 4
  %14 = load i32, ptr %6, align 4
  %15 = zext i32 %14 to i64
  %16 = call ptr @bit_alloc(i64 noundef %15)
  store ptr %16, ptr %8, align 8
  %17 = load ptr, ptr %8, align 8
  %18 = icmp ne ptr %17, null
  br i1 %18, label %20, label %19

19:                                               ; preds = %3
  store ptr null, ptr %4, align 8
  store i32 1, ptr %13, align 4
  br label %73

20:                                               ; preds = %3
  %21 = load ptr, ptr %5, align 8
  %22 = call ptr @xstrdup(ptr noundef %21)
  store ptr %22, ptr %9, align 8
  %23 = load ptr, ptr %9, align 8
  %24 = call ptr @strtok_r(ptr noundef %23, ptr noundef @.str.2, ptr noundef %5) #11
  store ptr %24, ptr %10, align 8
  br label %25

25:                                               ; preds = %33, %20
  %26 = load ptr, ptr %10, align 8
  %27 = icmp ne ptr %26, null
  br i1 %27, label %28, label %31

28:                                               ; preds = %25
  %29 = load i8, ptr %11, align 1, !range !16, !noundef !17
  %30 = trunc i8 %29 to i1
  br label %31

31:                                               ; preds = %28, %25
  %32 = phi i1 [ false, %25 ], [ %30, %28 ]
  br i1 %32, label %33, label %40

33:                                               ; preds = %31
  %34 = load ptr, ptr %10, align 8
  %35 = load ptr, ptr %8, align 8
  %36 = load i32, ptr %6, align 4
  %37 = call zeroext i1 @slurm_parse_array_tok(ptr noundef %34, ptr noundef %35, i32 noundef %36)
  %38 = zext i1 %37 to i8
  store i8 %38, ptr %11, align 1
  %39 = call ptr @strtok_r(ptr noundef null, ptr noundef @.str.2, ptr noundef %5) #11
  store ptr %39, ptr %10, align 8
  br label %25, !llvm.loop !26

40:                                               ; preds = %31
  call void @slurm_xfree(ptr noundef %9)
  %41 = load i8, ptr %11, align 1, !range !16, !noundef !17
  %42 = trunc i8 %41 to i1
  br i1 %42, label %51, label %43

43:                                               ; preds = %40
  br label %44

44:                                               ; preds = %43
  %45 = load ptr, ptr %8, align 8
  %46 = icmp ne ptr %45, null
  br i1 %46, label %47, label %48

47:                                               ; preds = %44
  call void @slurm_bit_free(ptr noundef %8)
  br label %48

48:                                               ; preds = %47, %44
  store ptr null, ptr %8, align 8
  br label %49

49:                                               ; preds = %48
  br label %50

50:                                               ; preds = %49
  store ptr null, ptr %4, align 8
  store i32 1, ptr %13, align 4
  br label %73

51:                                               ; preds = %40
  %52 = load ptr, ptr %8, align 8
  %53 = call i64 @bit_fls(ptr noundef %52)
  %54 = trunc i64 %53 to i32
  store i32 %54, ptr %12, align 4
  %55 = load i32, ptr %12, align 4
  %56 = icmp slt i32 %55, 0
  br i1 %56, label %57, label %65

57:                                               ; preds = %51
  br label %58

58:                                               ; preds = %57
  %59 = load ptr, ptr %8, align 8
  %60 = icmp ne ptr %59, null
  br i1 %60, label %61, label %62

61:                                               ; preds = %58
  call void @slurm_bit_free(ptr noundef %8)
  br label %62

62:                                               ; preds = %61, %58
  store ptr null, ptr %8, align 8
  br label %63

63:                                               ; preds = %62
  br label %64

64:                                               ; preds = %63
  store ptr null, ptr %4, align 8
  store i32 1, ptr %13, align 4
  br label %73

65:                                               ; preds = %51
  %66 = load ptr, ptr %7, align 8
  %67 = icmp ne ptr %66, null
  br i1 %67, label %68, label %71

68:                                               ; preds = %65
  %69 = load i32, ptr %12, align 4
  %70 = load ptr, ptr %7, align 8
  store i32 %69, ptr %70, align 4
  br label %71

71:                                               ; preds = %68, %65
  %72 = load ptr, ptr %8, align 8
  store ptr %72, ptr %4, align 8
  store i32 1, ptr %13, align 4
  br label %73

73:                                               ; preds = %71, %64, %50, %19
  call void @llvm.lifetime.end.p0(i64 4, ptr %12) #11
  call void @llvm.lifetime.end.p0(i64 1, ptr %11) #11
  call void @llvm.lifetime.end.p0(i64 8, ptr %10) #11
  call void @llvm.lifetime.end.p0(i64 8, ptr %9) #11
  call void @llvm.lifetime.end.p0(i64 8, ptr %8) #11
  %74 = load ptr, ptr %4, align 8
  ret ptr %74
}