; Function Attrs: nounwind uwtable
define dso_local ptr @slurm_array_str2bitmap(ptr noundef %0, i32 noundef %1, ptr noundef writeonly captures(address_is_null) %2) local_unnamed_addr #1 {
  %4 = alloca ptr, align 8
  %5 = alloca ptr, align 8
  %6 = alloca ptr, align 8
  store ptr %0, ptr %4, align 8
  call void @llvm.lifetime.start.p0(i64 8, ptr nonnull %5) #24
  call void @llvm.lifetime.start.p0(i64 8, ptr nonnull %6) #24
  %7 = zext i32 %1 to i64
  %8 = tail call ptr @bit_alloc(i64 noundef %7) #24
  store ptr %8, ptr %5, align 8
  %.not = icmp eq ptr %8, null
  br i1 %.not, label %32, label %9

9:                                                ; preds = %3
  %10 = tail call ptr @xstrdup(ptr noundef %0) #24
  store ptr %10, ptr %6, align 8
  %11 = call ptr @strtok_r(ptr noundef %10, ptr noundef nonnull @.str.2, ptr noundef nonnull %4) #24
  %.not18 = icmp eq ptr %11, null
  br i1 %.not18, label %.critedge, label %.lr.ph

.lr.ph:                                           ; preds = %9, %.lr.ph
  %.01017 = phi ptr [ %14, %.lr.ph ], [ %11, %9 ]
  %12 = load ptr, ptr %5, align 8
  %13 = call zeroext i1 @slurm_parse_array_tok(ptr noundef nonnull %.01017, ptr noundef %12, i32 noundef %1)
  %14 = call ptr @strtok_r(ptr noundef null, ptr noundef nonnull @.str.2, ptr noundef nonnull %4) #24
  %15 = icmp ne ptr %14, null
  %16 = and i1 %15, %13
  br i1 %16, label %.lr.ph, label %._crit_edge, !llvm.loop !26

._crit_edge:                                      ; preds = %.lr.ph
  call void @slurm_xfree(ptr noundef nonnull %6) #24
  br i1 %13, label %20, label %17

17:                                               ; preds = %._crit_edge
  %18 = load ptr, ptr %5, align 8
  %.not14 = icmp eq ptr %18, null
  br i1 %.not14, label %32, label %19

19:                                               ; preds = %17
  call void @slurm_bit_free(ptr noundef nonnull %5) #24
  br label %32

.critedge:                                        ; preds = %9
  call void @slurm_xfree(ptr noundef nonnull %6) #24
  br label %20

20:                                               ; preds = %.critedge, %._crit_edge
  %21 = load ptr, ptr %5, align 8
  %22 = call i64 @bit_fls(ptr noundef %21) #24
  %23 = trunc i64 %22 to i32
  %24 = icmp slt i32 %23, 0
  br i1 %24, label %25, label %28

25:                                               ; preds = %20
  %26 = load ptr, ptr %5, align 8
  %.not16 = icmp eq ptr %26, null
  br i1 %.not16, label %32, label %27

27:                                               ; preds = %25
  call void @slurm_bit_free(ptr noundef nonnull %5) #24
  br label %32

28:                                               ; preds = %20
  %.not15 = icmp eq ptr %2, null
  br i1 %.not15, label %30, label %29

29:                                               ; preds = %28
  store i32 %23, ptr %2, align 4
  br label %30

30:                                               ; preds = %29, %28
  %31 = load ptr, ptr %5, align 8
  br label %32

32:                                               ; preds = %25, %27, %17, %19, %3, %30
  %.011 = phi ptr [ %31, %30 ], [ null, %3 ], [ null, %19 ], [ null, %17 ], [ null, %27 ], [ null, %25 ]
  call void @llvm.lifetime.end.p0(i64 8, ptr nonnull %6) #24
  call void @llvm.lifetime.end.p0(i64 8, ptr nonnull %5) #24
  ret ptr %.011
}